; Function Attrs: mustprogress uwtable
define hidden noundef i32 @_ZN5ceres8internal7DenseQR14FactorAndSolveEiiPdPKdS2_PNSt7__cxx1112basic_stringIcSt11char_traitsIcESaIcEEE(ptr noundef nonnull align 8 dereferenceable(8) %0, i32 noundef %1, i32 noundef %2, ptr noundef %3, ptr noundef %4, ptr noundef %5, ptr noundef %6) local_unnamed_addr #3 align 2 {
  %8 = load ptr, ptr %0, align 8
  %9 = getelementptr inbounds i8, ptr %8, i64 16
  %10 = load ptr, ptr %9, align 8
  %11 = tail call noundef i32 %10(ptr noundef nonnull align 8 dereferenceable(8) %0, i32 noundef %1, i32 noundef %2, ptr noundef %3, ptr noundef %6)
  %12 = icmp eq i32 %11, 0
  br i1 %12, label %13, label %18

13:                                               ; preds = %7
  %14 = load ptr, ptr %0, align 8
  %15 = getelementptr inbounds i8, ptr %14, i64 24
  %16 = load ptr, ptr %15, align 8
  %17 = tail call noundef i32 %16(ptr noundef nonnull align 8 dereferenceable(8) %0, ptr noundef %4, ptr noundef %5, ptr noundef %6)
  br label %18

18:                                               ; preds = %13, %7
  %.0 = phi i32 [ %17, %13 ], [ %11, %7 ]
  ret i32 %.0
}